; Function Attrs: nofree norecurse nosync nounwind memory(read, argmem: readwrite, inaccessiblemem: none) uwtable
define i64 @HUFv07_decompress4X2_usingDTable(ptr noundef %0, i64 noundef %1, ptr noundef %2, i64 noundef %3, ptr noundef readonly captures(none) %4) local_unnamed_addr #12 {
  %.val = load i32, ptr %4, align 4
  %6 = and i32 %.val, 65280
  %.not = icmp eq i32 %6, 0
  br i1 %.not, label %7, label %9

7:                                                ; preds = %5
  %8 = tail call fastcc i64 @HUFv07_decompress4X2_usingDTable_internal(ptr noundef %0, i64 noundef %1, ptr noundef %2, i64 noundef %3, ptr noundef nonnull %4)
  br label %9

9:                                                ; preds = %5, %7
  %.0 = phi i64 [ %8, %7 ], [ -1, %5 ]
  ret i64 %.0
}